target datalayout = "e-m:e-p270:32:32-p271:32:32-p272:64:64-i64:64-i128:128-f80:128-n8:16:32:64-S128"
target triple = "x86_64-pc-linux-gnu"

%"class.cv::Mat_" = type { %"class.cv::Mat" }
%"class.cv::Mat" = type { i32, i32, i32, i32, ptr, ptr, ptr, ptr, ptr, ptr, %"struct.cv::MatSize", %"struct.cv::MatStep" }
%"struct.cv::MatSize" = type { ptr }
%"struct.cv::MatStep" = type { ptr, [2 x i64] }
%"class.cv::Range" = type { i32, i32 }
%"struct.cv::optflow::BuildFlowMapBody" = type { %"class.cv::ParallelLoopBody", %"class.cv::Mat_", %"class.cv::Mat_", %"class.cv::Mat_", %"class.cv::Mat_" }
%"class.cv::ParallelLoopBody" = type { ptr }

; Function Attrs: inlinehint mustprogress nounwind uwtable
define linkonce_odr hidden noundef ptr @_ZN2cv4Mat_IfEixEi(ptr noundef nonnull align 8 dereferenceable(96) %0, i32 noundef %1) #6 comdat align 2 {
  %3 = alloca ptr, align 8
  %4 = alloca i32, align 4
  store ptr %0, ptr %3, align 8, !tbaa !86
  store i32 %1, ptr %4, align 4, !tbaa !55
  %5 = load ptr, ptr %3, align 8
  %6 = getelementptr inbounds nuw %"class.cv::Mat", ptr %5, i32 0, i32 4
  %7 = load ptr, ptr %6, align 8, !tbaa !112
  %8 = load i32, ptr %4, align 4, !tbaa !55
  %9 = sext i32 %8 to i64
  %10 = getelementptr inbounds nuw %"class.cv::Mat", ptr %5, i32 0, i32 11
  %11 = getelementptr inbounds nuw %"struct.cv::MatStep", ptr %10, i32 0, i32 0
  %12 = load ptr, ptr %11, align 8, !tbaa !113
  %13 = getelementptr inbounds i64, ptr %12, i64 0
  %14 = load i64, ptr %13, align 8, !tbaa !81
  %15 = mul i64 %9, %14
  %16 = getelementptr inbounds nuw i8, ptr %7, i64 %15
  ret ptr %16
}

; Function Attrs: inlinehint mustprogress nounwind uwtable
define linkonce_odr hidden noundef ptr @_ZNK2cv4Mat_IfEixEi(ptr noundef nonnull align 8 dereferenceable(96) %0, i32 noundef %1) #6 comdat align 2 {
  %3 = alloca ptr, align 8
  %4 = alloca i32, align 4
  store ptr %0, ptr %3, align 8, !tbaa !86
  store i32 %1, ptr %4, align 4, !tbaa !55
  %5 = load ptr, ptr %3, align 8
  %6 = getelementptr inbounds nuw %"class.cv::Mat", ptr %5, i32 0, i32 4
  %7 = load ptr, ptr %6, align 8, !tbaa !112
  %8 = load i32, ptr %4, align 4, !tbaa !55
  %9 = sext i32 %8 to i64
  %10 = getelementptr inbounds nuw %"class.cv::Mat", ptr %5, i32 0, i32 11
  %11 = getelementptr inbounds nuw %"struct.cv::MatStep", ptr %10, i32 0, i32 0
  %12 = load ptr, ptr %11, align 8, !tbaa !113
  %13 = getelementptr inbounds i64, ptr %12, i64 0
  %14 = load i64, ptr %13, align 8, !tbaa !81
  %15 = mul i64 %9, %14
  %16 = getelementptr inbounds nuw i8, ptr %7, i64 %15
  ret ptr %16
}

; Function Attrs: mustprogress uwtable
define hidden void @_ZNK2cv7optflow16BuildFlowMapBodyclERKNS_5RangeE(ptr noundef nonnull align 8 dereferenceable(392) %0, ptr noundef nonnull align 4 dereferenceable(8) %1) unnamed_addr #4 align 2 {
  %3 = alloca ptr, align 8
  %4 = alloca ptr, align 8
  %5 = alloca i32, align 4
  %6 = alloca i32, align 4
  %7 = alloca ptr, align 8
  %8 = alloca ptr, align 8
  %9 = alloca ptr, align 8
  %10 = alloca ptr, align 8
  %11 = alloca i32, align 4
  store ptr %0, ptr %3, align 8, !tbaa !101
  store ptr %1, ptr %4, align 8, !tbaa !103
  %12 = load ptr, ptr %3, align 8
  call void @llvm.lifetime.start.p0(i64 4, ptr %5) #3
  %13 = load ptr, ptr %4, align 8, !tbaa !103
  %14 = getelementptr inbounds nuw %"class.cv::Range", ptr %13, i32 0, i32 0
  %15 = load i32, ptr %14, align 4, !tbaa !105
  store i32 %15, ptr %5, align 4, !tbaa !55
  br label %16

16:                                               ; preds = %72, %2
  %17 = load i32, ptr %5, align 4, !tbaa !55
  %18 = load ptr, ptr %4, align 8, !tbaa !103
  %19 = getelementptr inbounds nuw %"class.cv::Range", ptr %18, i32 0, i32 1
  %20 = load i32, ptr %19, align 4, !tbaa !107
  %21 = icmp slt i32 %17, %20
  br i1 %21, label %23, label %22

22:                                               ; preds = %16
  store i32 2, ptr %6, align 4
  call void @llvm.lifetime.end.p0(i64 4, ptr %5) #3
  br label %75

23:                                               ; preds = %16
  call void @llvm.lifetime.start.p0(i64 8, ptr %7) #3
  %24 = getelementptr inbounds nuw %"struct.cv::optflow::BuildFlowMapBody", ptr %12, i32 0, i32 1
  %25 = load i32, ptr %5, align 4, !tbaa !55
  %26 = call noundef ptr @_ZNK2cv4Mat_IfEixEi(ptr noundef nonnull align 8 dereferenceable(96) %24, i32 noundef %25)
  store ptr %26, ptr %7, align 8, !tbaa !108
  call void @llvm.lifetime.start.p0(i64 8, ptr %8) #3
  %27 = getelementptr inbounds nuw %"struct.cv::optflow::BuildFlowMapBody", ptr %12, i32 0, i32 2
  %28 = load i32, ptr %5, align 4, !tbaa !55
  %29 = call noundef ptr @_ZNK2cv4Mat_IfEixEi(ptr noundef nonnull align 8 dereferenceable(96) %27, i32 noundef %28)
  store ptr %29, ptr %8, align 8, !tbaa !108
  call void @llvm.lifetime.start.p0(i64 8, ptr %9) #3
  %30 = getelementptr inbounds nuw %"struct.cv::optflow::BuildFlowMapBody", ptr %12, i32 0, i32 3
  %31 = load i32, ptr %5, align 4, !tbaa !55
  %32 = call noundef ptr @_ZN2cv4Mat_IfEixEi(ptr noundef nonnull align 8 dereferenceable(96) %30, i32 noundef %31)
  store ptr %32, ptr %9, align 8, !tbaa !108
  call void @llvm.lifetime.start.p0(i64 8, ptr %10) #3
  %33 = getelementptr inbounds nuw %"struct.cv::optflow::BuildFlowMapBody", ptr %12, i32 0, i32 4
  %34 = load i32, ptr %5, align 4, !tbaa !55
  %35 = call noundef ptr @_ZN2cv4Mat_IfEixEi(ptr noundef nonnull align 8 dereferenceable(96) %33, i32 noundef %34)
  store ptr %35, ptr %10, align 8, !tbaa !108
  call void @llvm.lifetime.start.p0(i64 4, ptr %11) #3
  store i32 0, ptr %11, align 4, !tbaa !55
  br label %36

36:                                               ; preds = %68, %23
  %37 = load i32, ptr %11, align 4, !tbaa !55
  %38 = getelementptr inbounds nuw %"struct.cv::optflow::BuildFlowMapBody", ptr %12, i32 0, i32 1
  %39 = getelementptr inbounds nuw %"class.cv::Mat", ptr %38, i32 0, i32 3
  %40 = load i32, ptr %39, align 4, !tbaa !56
  %41 = icmp slt i32 %37, %40
  br i1 %41, label %43, label %42

42:                                               ; preds = %36
  store i32 5, ptr %6, align 4
  call void @llvm.lifetime.end.p0(i64 4, ptr %11) #3
  br label %71

43:                                               ; preds = %36
  %44 = load i32, ptr %11, align 4, !tbaa !55
  %45 = sitofp i32 %44 to float
  %46 = load ptr, ptr %7, align 8, !tbaa !108
  %47 = load i32, ptr %11, align 4, !tbaa !55
  %48 = sext i32 %47 to i64
  %49 = getelementptr inbounds float, ptr %46, i64 %48
  %50 = load float, ptr %49, align 4, !tbaa !91
  %51 = fadd float %45, %50
  %52 = load ptr, ptr %9, align 8, !tbaa !108
  %53 = load i32, ptr %11, align 4, !tbaa !55
  %54 = sext i32 %53 to i64
  %55 = getelementptr inbounds float, ptr %52, i64 %54
  store float %51, ptr %55, align 4, !tbaa !91
  %56 = load i32, ptr %5, align 4, !tbaa !55
  %57 = sitofp i32 %56 to float
  %58 = load ptr, ptr %8, align 8, !tbaa !108
  %59 = load i32, ptr %11, align 4, !tbaa !55
  %60 = sext i32 %59 to i64
  %61 = getelementptr inbounds float, ptr %58, i64 %60
  %62 = load float, ptr %61, align 4, !tbaa !91
  %63 = fadd float %57, %62
  %64 = load ptr, ptr %10, align 8, !tbaa !108
  %65 = load i32, ptr %11, align 4, !tbaa !55
  %66 = sext i32 %65 to i64
  %67 = getelementptr inbounds float, ptr %64, i64 %66
  store float %63, ptr %67, align 4, !tbaa !91
  br label %68

68:                                               ; preds = %43
  %69 = load i32, ptr %11, align 4, !tbaa !55
  %70 = add nsw i32 %69, 1
  store i32 %70, ptr %11, align 4, !tbaa !55
  br label %36, !llvm.loop !110

71:                                               ; preds = %42
  call void @llvm.lifetime.end.p0(i64 8, ptr %10) #3
  call void @llvm.lifetime.end.p0(i64 8, ptr %9) #3
  call void @llvm.lifetime.end.p0(i64 8, ptr %8) #3
  call void @llvm.lifetime.end.p0(i64 8, ptr %7) #3
  br label %72

72:                                               ; preds = %71
  %73 = load i32, ptr %5, align 4, !tbaa !55
  %74 = add nsw i32 %73, 1
  store i32 %74, ptr %5, align 4, !tbaa !55
  br label %16, !llvm.loop !111

75:                                               ; preds = %22
  ret void
}