; Function Attrs: mustprogress nofree norecurse nosync nounwind memory(readwrite, inaccessiblemem: none) uwtable
define hidden void @_ZNK2cv7optflow16BuildFlowMapBodyclERKNS_5RangeE(ptr noundef nonnull readonly align 8 captures(none) dereferenceable(392) %0, ptr noundef nonnull readonly align 4 captures(none) dereferenceable(8) %1) unnamed_addr #7 align 2 {
  %3 = load i32, ptr %1, align 4, !tbaa !95
  %4 = getelementptr inbounds nuw i8, ptr %1, i64 4
  %5 = load i32, ptr %4, align 4, !tbaa !97
  %6 = icmp slt i32 %3, %5
  br i1 %6, label %.lr.ph24, label %._crit_edge25

.lr.ph24:                                         ; preds = %2
  %7 = getelementptr inbounds nuw i8, ptr %0, i64 24
  %8 = load ptr, ptr %7, align 8, !tbaa !98
  %9 = getelementptr inbounds nuw i8, ptr %0, i64 80
  %10 = load ptr, ptr %9, align 8, !tbaa !99
  %11 = load i64, ptr %10, align 8, !tbaa !100
  %12 = getelementptr inbounds nuw i8, ptr %0, i64 120
  %13 = load ptr, ptr %12, align 8, !tbaa !98
  %14 = getelementptr inbounds nuw i8, ptr %0, i64 176
  %15 = load ptr, ptr %14, align 8, !tbaa !99
  %16 = load i64, ptr %15, align 8, !tbaa !100
  %17 = getelementptr inbounds nuw i8, ptr %0, i64 216
  %18 = load ptr, ptr %17, align 8, !tbaa !98
  %19 = getelementptr inbounds nuw i8, ptr %0, i64 272
  %20 = load ptr, ptr %19, align 8, !tbaa !99
  %21 = load i64, ptr %20, align 8, !tbaa !100
  %22 = getelementptr inbounds nuw i8, ptr %0, i64 312
  %23 = load ptr, ptr %22, align 8, !tbaa !98
  %24 = getelementptr inbounds nuw i8, ptr %0, i64 368
  %25 = load ptr, ptr %24, align 8, !tbaa !99
  %26 = load i64, ptr %25, align 8, !tbaa !100
  %27 = getelementptr inbounds nuw i8, ptr %0, i64 20
  %28 = load i32, ptr %27, align 4, !tbaa !71
  %29 = icmp sgt i32 %28, 0
  br i1 %29, label %.lr.ph.us.preheader, label %._crit_edge25

.lr.ph.us.preheader:                              ; preds = %.lr.ph24
  %30 = sext i32 %3 to i64
  %wide.trip.count31 = sext i32 %5 to i64
  %wide.trip.count = zext nneg i32 %28 to i64
  br label %.lr.ph.us

.lr.ph.us:                                        ; preds = %.lr.ph.us.preheader, %._crit_edge.us
  %indvars.iv28 = phi i64 [ %30, %.lr.ph.us.preheader ], [ %indvars.iv.next29, %._crit_edge.us ]
  %31 = mul i64 %11, %indvars.iv28
  %32 = getelementptr inbounds nuw i8, ptr %8, i64 %31
  %33 = mul i64 %16, %indvars.iv28
  %34 = getelementptr inbounds nuw i8, ptr %13, i64 %33
  %35 = mul i64 %21, %indvars.iv28
  %36 = getelementptr inbounds nuw i8, ptr %18, i64 %35
  %37 = mul i64 %26, %indvars.iv28
  %38 = getelementptr inbounds nuw i8, ptr %23, i64 %37
  %39 = trunc nsw i64 %indvars.iv28 to i32
  %40 = sitofp i32 %39 to float
  br label %41

41:                                               ; preds = %.lr.ph.us, %41
  %indvars.iv = phi i64 [ 0, %.lr.ph.us ], [ %indvars.iv.next, %41 ]
  %42 = trunc nuw nsw i64 %indvars.iv to i32
  %43 = uitofp nneg i32 %42 to float
  %44 = getelementptr inbounds nuw float, ptr %32, i64 %indvars.iv
  %45 = load float, ptr %44, align 4, !tbaa !101
  %46 = fadd float %45, %43
  %47 = getelementptr inbounds nuw float, ptr %36, i64 %indvars.iv
  store float %46, ptr %47, align 4, !tbaa !101
  %48 = getelementptr inbounds nuw float, ptr %34, i64 %indvars.iv
  %49 = load float, ptr %48, align 4, !tbaa !101
  %50 = fadd float %49, %40
  %51 = getelementptr inbounds nuw float, ptr %38, i64 %indvars.iv
  store float %50, ptr %51, align 4, !tbaa !101
  %indvars.iv.next = add nuw nsw i64 %indvars.iv, 1
  %exitcond.not = icmp eq i64 %indvars.iv.next, %wide.trip.count
  br i1 %exitcond.not, label %._crit_edge.us, label %41, !llvm.loop !117

._crit_edge.us:                                   ; preds = %41
  %indvars.iv.next29 = add nsw i64 %indvars.iv28, 1
  %exitcond32.not = icmp eq i64 %indvars.iv.next29, %wide.trip.count31
  br i1 %exitcond32.not, label %._crit_edge25, label %.lr.ph.us, !llvm.loop !118

._crit_edge25:                                    ; preds = %._crit_edge.us, %.lr.ph24, %2
  ret void
}